; Function Attrs: mustprogress uwtable
define void @_ZN3gmx19DirectoryEnumerator8nextFileB5cxx11Ev(ptr dead_on_unwind noalias writable sret(%"class.std::optional") align 8 %0, ptr noundef nonnull readonly align 8 captures(none) dereferenceable(8) %1) local_unnamed_addr #0 align 2 {
  %3 = load ptr, ptr %1, align 8, !tbaa !7
  %.not.i = icmp eq ptr %3, null
  br i1 %.not.i, label %4, label %6

4:                                                ; preds = %2
  %5 = getelementptr inbounds nuw i8, ptr %0, i64 40
  store i8 0, ptr %5, align 8, !tbaa !12
  br label %7

6:                                                ; preds = %2
  tail call void @_ZN3gmx19DirectoryEnumerator4Impl8nextFileB5cxx11Ev(ptr dead_on_unwind writable sret(%"class.std::optional") align 8 %0, ptr noundef nonnull align 8 dereferenceable(16) %3)
  br label %7

7:                                                ; preds = %6, %4
  ret void
}